
webcameraserver:     file format elf32-i386


Disassembly of section .init:

0804885c <_init>:
 804885c:	55                   	push   %ebp
 804885d:	89 e5                	mov    %esp,%ebp
 804885f:	53                   	push   %ebx
 8048860:	83 ec 04             	sub    $0x4,%esp
 8048863:	e8 00 00 00 00       	call   8048868 <_init+0xc>
 8048868:	5b                   	pop    %ebx
 8048869:	81 c3 8c 27 00 00    	add    $0x278c,%ebx
 804886f:	8b 93 fc ff ff ff    	mov    -0x4(%ebx),%edx
 8048875:	85 d2                	test   %edx,%edx
 8048877:	74 05                	je     804887e <_init+0x22>
 8048879:	e8 ae 00 00 00       	call   804892c <__gmon_start__@plt>
 804887e:	e8 7d 02 00 00       	call   8048b00 <frame_dummy>
 8048883:	e8 88 0c 00 00       	call   8049510 <__do_global_ctors_aux>
 8048888:	58                   	pop    %eax
 8048889:	5b                   	pop    %ebx
 804888a:	c9                   	leave  
 804888b:	c3                   	ret    

Disassembly of section .plt:

0804888c <__libc_start_main@plt-0x10>:
 804888c:	ff 35 f8 af 04 08    	pushl  0x804aff8
 8048892:	ff 25 fc af 04 08    	jmp    *0x804affc
 8048898:	00 00                	add    %al,(%eax)
	...

0804889c <__libc_start_main@plt>:
 804889c:	ff 25 00 b0 04 08    	jmp    *0x804b000
 80488a2:	68 00 00 00 00       	push   $0x0
 80488a7:	e9 e0 ff ff ff       	jmp    804888c <_init+0x30>

080488ac <listen@plt>:
 80488ac:	ff 25 04 b0 04 08    	jmp    *0x804b004
 80488b2:	68 08 00 00 00       	push   $0x8
 80488b7:	e9 d0 ff ff ff       	jmp    804888c <_init+0x30>

080488bc <exit@plt>:
 80488bc:	ff 25 08 b0 04 08    	jmp    *0x804b008
 80488c2:	68 10 00 00 00       	push   $0x10
 80488c7:	e9 c0 ff ff ff       	jmp    804888c <_init+0x30>

080488cc <close@plt>:
 80488cc:	ff 25 0c b0 04 08    	jmp    *0x804b00c
 80488d2:	68 18 00 00 00       	push   $0x18
 80488d7:	e9 b0 ff ff ff       	jmp    804888c <_init+0x30>

080488dc <strncpy@plt>:
 80488dc:	ff 25 10 b0 04 08    	jmp    *0x804b010
 80488e2:	68 20 00 00 00       	push   $0x20
 80488e7:	e9 a0 ff ff ff       	jmp    804888c <_init+0x30>

080488ec <recv@plt>:
 80488ec:	ff 25 14 b0 04 08    	jmp    *0x804b014
 80488f2:	68 28 00 00 00       	push   $0x28
 80488f7:	e9 90 ff ff ff       	jmp    804888c <_init+0x30>

080488fc <open@plt>:
 80488fc:	ff 25 18 b0 04 08    	jmp    *0x804b018
 8048902:	68 30 00 00 00       	push   $0x30
 8048907:	e9 80 ff ff ff       	jmp    804888c <_init+0x30>

0804890c <__stack_chk_fail@plt>:
 804890c:	ff 25 1c b0 04 08    	jmp    *0x804b01c
 8048912:	68 38 00 00 00       	push   $0x38
 8048917:	e9 70 ff ff ff       	jmp    804888c <_init+0x30>

0804891c <ioctl@plt>:
 804891c:	ff 25 20 b0 04 08    	jmp    *0x804b020
 8048922:	68 40 00 00 00       	push   $0x40
 8048927:	e9 60 ff ff ff       	jmp    804888c <_init+0x30>

0804892c <__gmon_start__@plt>:
 804892c:	ff 25 24 b0 04 08    	jmp    *0x804b024
 8048932:	68 48 00 00 00       	push   $0x48
 8048937:	e9 50 ff ff ff       	jmp    804888c <_init+0x30>

0804893c <mmap@plt>:
 804893c:	ff 25 28 b0 04 08    	jmp    *0x804b028
 8048942:	68 50 00 00 00       	push   $0x50
 8048947:	e9 40 ff ff ff       	jmp    804888c <_init+0x30>

0804894c <socket@plt>:
 804894c:	ff 25 2c b0 04 08    	jmp    *0x804b02c
 8048952:	68 58 00 00 00       	push   $0x58
 8048957:	e9 30 ff ff ff       	jmp    804888c <_init+0x30>

0804895c <__gxx_personality_v0@plt>:
 804895c:	ff 25 30 b0 04 08    	jmp    *0x804b030
 8048962:	68 60 00 00 00       	push   $0x60
 8048967:	e9 20 ff ff ff       	jmp    804888c <_init+0x30>

0804896c <_Unwind_Resume@plt>:
 804896c:	ff 25 34 b0 04 08    	jmp    *0x804b034
 8048972:	68 68 00 00 00       	push   $0x68
 8048977:	e9 10 ff ff ff       	jmp    804888c <_init+0x30>

0804897c <memset@plt>:
 804897c:	ff 25 38 b0 04 08    	jmp    *0x804b038
 8048982:	68 70 00 00 00       	push   $0x70
 8048987:	e9 00 ff ff ff       	jmp    804888c <_init+0x30>

0804898c <puts@plt>:
 804898c:	ff 25 3c b0 04 08    	jmp    *0x804b03c
 8048992:	68 78 00 00 00       	push   $0x78
 8048997:	e9 f0 fe ff ff       	jmp    804888c <_init+0x30>

0804899c <cvCreateCameraCapture@plt>:
 804899c:	ff 25 40 b0 04 08    	jmp    *0x804b040
 80489a2:	68 80 00 00 00       	push   $0x80
 80489a7:	e9 e0 fe ff ff       	jmp    804888c <_init+0x30>

080489ac <cvReleaseCapture@plt>:
 80489ac:	ff 25 44 b0 04 08    	jmp    *0x804b044
 80489b2:	68 88 00 00 00       	push   $0x88
 80489b7:	e9 d0 fe ff ff       	jmp    804888c <_init+0x30>

080489bc <cvQueryFrame@plt>:
 80489bc:	ff 25 48 b0 04 08    	jmp    *0x804b048
 80489c2:	68 90 00 00 00       	push   $0x90
 80489c7:	e9 c0 fe ff ff       	jmp    804888c <_init+0x30>

080489cc <strtol@plt>:
 80489cc:	ff 25 4c b0 04 08    	jmp    *0x804b04c
 80489d2:	68 98 00 00 00       	push   $0x98
 80489d7:	e9 b0 fe ff ff       	jmp    804888c <_init+0x30>

080489dc <free@plt>:
 80489dc:	ff 25 50 b0 04 08    	jmp    *0x804b050
 80489e2:	68 a0 00 00 00       	push   $0xa0
 80489e7:	e9 a0 fe ff ff       	jmp    804888c <_init+0x30>

080489ec <accept@plt>:
 80489ec:	ff 25 54 b0 04 08    	jmp    *0x804b054
 80489f2:	68 a8 00 00 00       	push   $0xa8
 80489f7:	e9 90 fe ff ff       	jmp    804888c <_init+0x30>

080489fc <strcpy@plt>:
 80489fc:	ff 25 58 b0 04 08    	jmp    *0x804b058
 8048a02:	68 b0 00 00 00       	push   $0xb0
 8048a07:	e9 80 fe ff ff       	jmp    804888c <_init+0x30>

08048a0c <bind@plt>:
 8048a0c:	ff 25 5c b0 04 08    	jmp    *0x804b05c
 8048a12:	68 b8 00 00 00       	push   $0xb8
 8048a17:	e9 70 fe ff ff       	jmp    804888c <_init+0x30>

08048a1c <system@plt>:
 8048a1c:	ff 25 60 b0 04 08    	jmp    *0x804b060
 8048a22:	68 c0 00 00 00       	push   $0xc0
 8048a27:	e9 60 fe ff ff       	jmp    804888c <_init+0x30>

08048a2c <malloc@plt>:
 8048a2c:	ff 25 64 b0 04 08    	jmp    *0x804b064
 8048a32:	68 c8 00 00 00       	push   $0xc8
 8048a37:	e9 50 fe ff ff       	jmp    804888c <_init+0x30>

08048a3c <__printf_chk@plt>:
 8048a3c:	ff 25 68 b0 04 08    	jmp    *0x804b068
 8048a42:	68 d0 00 00 00       	push   $0xd0
 8048a47:	e9 40 fe ff ff       	jmp    804888c <_init+0x30>

08048a4c <write@plt>:
 8048a4c:	ff 25 6c b0 04 08    	jmp    *0x804b06c
 8048a52:	68 d8 00 00 00       	push   $0xd8
 8048a57:	e9 30 fe ff ff       	jmp    804888c <_init+0x30>

08048a5c <perror@plt>:
 8048a5c:	ff 25 70 b0 04 08    	jmp    *0x804b070
 8048a62:	68 e0 00 00 00       	push   $0xe0
 8048a67:	e9 20 fe ff ff       	jmp    804888c <_init+0x30>

Disassembly of section .text:

08048a70 <_start>:
 8048a70:	31 ed                	xor    %ebp,%ebp
 8048a72:	5e                   	pop    %esi
 8048a73:	89 e1                	mov    %esp,%ecx
 8048a75:	83 e4 f0             	and    $0xfffffff0,%esp
 8048a78:	50                   	push   %eax
 8048a79:	54                   	push   %esp
 8048a7a:	52                   	push   %edx
 8048a7b:	68 00 95 04 08       	push   $0x8049500
 8048a80:	68 a0 94 04 08       	push   $0x80494a0
 8048a85:	51                   	push   %ecx
 8048a86:	56                   	push   %esi
 8048a87:	68 30 8b 04 08       	push   $0x8048b30
 8048a8c:	e8 0b fe ff ff       	call   804889c <__libc_start_main@plt>
 8048a91:	f4                   	hlt    
 8048a92:	90                   	nop
 8048a93:	90                   	nop
 8048a94:	90                   	nop
 8048a95:	90                   	nop
 8048a96:	90                   	nop
 8048a97:	90                   	nop
 8048a98:	90                   	nop
 8048a99:	90                   	nop
 8048a9a:	90                   	nop
 8048a9b:	90                   	nop
 8048a9c:	90                   	nop
 8048a9d:	90                   	nop
 8048a9e:	90                   	nop
 8048a9f:	90                   	nop

08048aa0 <__do_global_dtors_aux>:
 8048aa0:	55                   	push   %ebp
 8048aa1:	89 e5                	mov    %esp,%ebp
 8048aa3:	53                   	push   %ebx
 8048aa4:	83 ec 04             	sub    $0x4,%esp
 8048aa7:	80 3d 7c b0 04 08 00 	cmpb   $0x0,0x804b07c
 8048aae:	75 3f                	jne    8048aef <__do_global_dtors_aux+0x4f>
 8048ab0:	a1 80 b0 04 08       	mov    0x804b080,%eax
 8048ab5:	bb d8 ae 04 08       	mov    $0x804aed8,%ebx
 8048aba:	81 eb d4 ae 04 08    	sub    $0x804aed4,%ebx
 8048ac0:	c1 fb 02             	sar    $0x2,%ebx
 8048ac3:	83 eb 01             	sub    $0x1,%ebx
 8048ac6:	39 d8                	cmp    %ebx,%eax
 8048ac8:	73 1e                	jae    8048ae8 <__do_global_dtors_aux+0x48>
 8048aca:	8d b6 00 00 00 00    	lea    0x0(%esi),%esi
 8048ad0:	83 c0 01             	add    $0x1,%eax
 8048ad3:	a3 80 b0 04 08       	mov    %eax,0x804b080
 8048ad8:	ff 14 85 d4 ae 04 08 	call   *0x804aed4(,%eax,4)
 8048adf:	a1 80 b0 04 08       	mov    0x804b080,%eax
 8048ae4:	39 d8                	cmp    %ebx,%eax
 8048ae6:	72 e8                	jb     8048ad0 <__do_global_dtors_aux+0x30>
 8048ae8:	c6 05 7c b0 04 08 01 	movb   $0x1,0x804b07c
 8048aef:	83 c4 04             	add    $0x4,%esp
 8048af2:	5b                   	pop    %ebx
 8048af3:	5d                   	pop    %ebp
 8048af4:	c3                   	ret    
 8048af5:	8d 74 26 00          	lea    0x0(%esi,%eiz,1),%esi
 8048af9:	8d bc 27 00 00 00 00 	lea    0x0(%edi,%eiz,1),%edi

08048b00 <frame_dummy>:
 8048b00:	55                   	push   %ebp
 8048b01:	89 e5                	mov    %esp,%ebp
 8048b03:	83 ec 18             	sub    $0x18,%esp
 8048b06:	a1 dc ae 04 08       	mov    0x804aedc,%eax
 8048b0b:	85 c0                	test   %eax,%eax
 8048b0d:	74 12                	je     8048b21 <frame_dummy+0x21>
 8048b0f:	b8 00 00 00 00       	mov    $0x0,%eax
 8048b14:	85 c0                	test   %eax,%eax
 8048b16:	74 09                	je     8048b21 <frame_dummy+0x21>
 8048b18:	c7 04 24 dc ae 04 08 	movl   $0x804aedc,(%esp)
 8048b1f:	ff d0                	call   *%eax
 8048b21:	c9                   	leave  
 8048b22:	c3                   	ret    
 8048b23:	90                   	nop
 8048b24:	90                   	nop
 8048b25:	90                   	nop
 8048b26:	90                   	nop
 8048b27:	90                   	nop
 8048b28:	90                   	nop
 8048b29:	90                   	nop
 8048b2a:	90                   	nop
 8048b2b:	90                   	nop
 8048b2c:	90                   	nop
 8048b2d:	90                   	nop
 8048b2e:	90                   	nop
 8048b2f:	90                   	nop

08048b30 <main>:
 8048b30:	55                   	push   %ebp
 8048b31:	89 e5                	mov    %esp,%ebp
 8048b33:	83 e4 f0             	and    $0xfffffff0,%esp
 8048b36:	57                   	push   %edi
 8048b37:	56                   	push   %esi
 8048b38:	53                   	push   %ebx
 8048b39:	81 ec 04 01 00 00    	sub    $0x104,%esp
 8048b3f:	8d 7c 24 14          	lea    0x14(%esp),%edi
 8048b43:	8d 9c 24 c4 00 00 00 	lea    0xc4(%esp),%ebx
 8048b4a:	89 3c 24             	mov    %edi,(%esp)
 8048b4d:	e8 1e 01 00 00       	call   8048c70 <_ZN12WframebufferC1Ev>
 8048b52:	89 1c 24             	mov    %ebx,(%esp)
 8048b55:	e8 46 04 00 00       	call   8048fa0 <_ZN7WserverC1Ev>
 8048b5a:	8b 44 24 14          	mov    0x14(%esp),%eax
 8048b5e:	89 1c 24             	mov    %ebx,(%esp)
 8048b61:	89 84 24 e8 00 00 00 	mov    %eax,0xe8(%esp)
 8048b68:	0f b7 44 24 18       	movzwl 0x18(%esp),%eax
 8048b6d:	66 89 84 24 f4 00 00 	mov    %ax,0xf4(%esp)
 8048b74:	00 
 8048b75:	0f b7 44 24 1a       	movzwl 0x1a(%esp),%eax
 8048b7a:	66 89 84 24 f6 00 00 	mov    %ax,0xf6(%esp)
 8048b81:	00 
 8048b82:	e8 29 06 00 00       	call   80491b0 <_ZN7Wserver13recive_picinfEv>
 8048b87:	8b 84 24 c4 00 00 00 	mov    0xc4(%esp),%eax
 8048b8e:	c7 44 24 04 60 95 04 	movl   $0x8049560,0x4(%esp)
 8048b95:	08 
 8048b96:	c7 04 24 01 00 00 00 	movl   $0x1,(%esp)
 8048b9d:	89 84 24 ec 00 00 00 	mov    %eax,0xec(%esp)
 8048ba4:	8b 84 24 c8 00 00 00 	mov    0xc8(%esp),%eax
 8048bab:	89 84 24 f0 00 00 00 	mov    %eax,0xf0(%esp)
 8048bb2:	8b 84 24 d0 00 00 00 	mov    0xd0(%esp),%eax
 8048bb9:	89 84 24 f8 00 00 00 	mov    %eax,0xf8(%esp)
 8048bc0:	89 44 24 08          	mov    %eax,0x8(%esp)
 8048bc4:	e8 73 fe ff ff       	call   8048a3c <__printf_chk@plt>
 8048bc9:	8d b4 24 e4 00 00 00 	lea    0xe4(%esp),%esi
 8048bd0:	89 1c 24             	mov    %ebx,(%esp)
 8048bd3:	e8 68 08 00 00       	call   8049440 <_ZN7Wserver6reciveEv>
 8048bd8:	8b 84 24 cc 00 00 00 	mov    0xcc(%esp),%eax
 8048bdf:	89 34 24             	mov    %esi,(%esp)
 8048be2:	89 84 24 e4 00 00 00 	mov    %eax,0xe4(%esp)
 8048be9:	0f b7 84 24 d4 00 00 	movzwl 0xd4(%esp),%eax
 8048bf0:	00 
 8048bf1:	66 89 84 24 fc 00 00 	mov    %ax,0xfc(%esp)
 8048bf8:	00 
 8048bf9:	e8 42 03 00 00       	call   8048f40 <_ZN5Wplay7playpicEv>
 8048bfe:	eb d0                	jmp    8048bd0 <main+0xa0>
 8048c00:	89 c3                	mov    %eax,%ebx
 8048c02:	89 3c 24             	mov    %edi,(%esp)
 8048c05:	e8 76 01 00 00       	call   8048d80 <_ZN12WframebufferD1Ev>
 8048c0a:	89 1c 24             	mov    %ebx,(%esp)
 8048c0d:	e8 5a fd ff ff       	call   804896c <_Unwind_Resume@plt>
 8048c12:	89 c6                	mov    %eax,%esi
 8048c14:	89 1c 24             	mov    %ebx,(%esp)
 8048c17:	89 f3                	mov    %esi,%ebx
 8048c19:	e8 62 05 00 00       	call   8049180 <_ZN7WserverD1Ev>
 8048c1e:	eb e2                	jmp    8048c02 <main+0xd2>

08048c20 <_ZN7WcameraC1Ev>:
 8048c20:	55                   	push   %ebp
 8048c21:	89 e5                	mov    %esp,%ebp
 8048c23:	83 ec 18             	sub    $0x18,%esp
 8048c26:	c7 04 24 ff ff ff ff 	movl   $0xffffffff,(%esp)
 8048c2d:	e8 6a fd ff ff       	call   804899c <cvCreateCameraCapture@plt>
 8048c32:	8b 55 08             	mov    0x8(%ebp),%edx
 8048c35:	89 42 04             	mov    %eax,0x4(%edx)
 8048c38:	c9                   	leave  
 8048c39:	c3                   	ret    
 8048c3a:	8d b6 00 00 00 00    	lea    0x0(%esi),%esi

08048c40 <_ZN7Wcamera4initEv>:
 8048c40:	55                   	push   %ebp
 8048c41:	89 e5                	mov    %esp,%ebp
 8048c43:	53                   	push   %ebx
 8048c44:	83 ec 14             	sub    $0x14,%esp
 8048c47:	8b 5d 08             	mov    0x8(%ebp),%ebx
 8048c4a:	8b 43 04             	mov    0x4(%ebx),%eax
 8048c4d:	89 04 24             	mov    %eax,(%esp)
 8048c50:	e8 67 fd ff ff       	call   80489bc <cvQueryFrame@plt>
 8048c55:	89 03                	mov    %eax,(%ebx)
 8048c57:	8b 40 44             	mov    0x44(%eax),%eax
 8048c5a:	83 c4 14             	add    $0x14,%esp
 8048c5d:	5b                   	pop    %ebx
 8048c5e:	5d                   	pop    %ebp
 8048c5f:	c3                   	ret    

08048c60 <_ZN7WcameraD1Ev>:
 8048c60:	55                   	push   %ebp
 8048c61:	89 e5                	mov    %esp,%ebp
 8048c63:	83 ec 08             	sub    $0x8,%esp
 8048c66:	83 45 08 04          	addl   $0x4,0x8(%ebp)
 8048c6a:	c9                   	leave  
 8048c6b:	e9 3c fd ff ff       	jmp    80489ac <cvReleaseCapture@plt>

08048c70 <_ZN12WframebufferC1Ev>:
 8048c70:	55                   	push   %ebp
 8048c71:	89 e5                	mov    %esp,%ebp
 8048c73:	53                   	push   %ebx
 8048c74:	83 ec 24             	sub    $0x24,%esp
 8048c77:	8b 5d 08             	mov    0x8(%ebp),%ebx
 8048c7a:	c7 44 24 04 02 00 00 	movl   $0x2,0x4(%esp)
 8048c81:	00 
 8048c82:	c7 04 24 6d 95 04 08 	movl   $0x804956d,(%esp)
 8048c89:	e8 6e fc ff ff       	call   80488fc <open@plt>
 8048c8e:	83 f8 ff             	cmp    $0xffffffff,%eax
 8048c91:	89 43 0c             	mov    %eax,0xc(%ebx)
 8048c94:	0f 84 c0 00 00 00    	je     8048d5a <_ZN12WframebufferC1Ev+0xea>
 8048c9a:	c7 04 24 8b 95 04 08 	movl   $0x804958b,(%esp)
 8048ca1:	e8 e6 fc ff ff       	call   804898c <puts@plt>
 8048ca6:	8d 43 10             	lea    0x10(%ebx),%eax
 8048ca9:	89 44 24 08          	mov    %eax,0x8(%esp)
 8048cad:	c7 44 24 04 00 46 00 	movl   $0x4600,0x4(%esp)
 8048cb4:	00 
 8048cb5:	8b 43 0c             	mov    0xc(%ebx),%eax
 8048cb8:	89 04 24             	mov    %eax,(%esp)
 8048cbb:	e8 5c fc ff ff       	call   804891c <ioctl@plt>
 8048cc0:	8b 43 10             	mov    0x10(%ebx),%eax
 8048cc3:	8b 53 14             	mov    0x14(%ebx),%edx
 8048cc6:	8b 4b 28             	mov    0x28(%ebx),%ecx
 8048cc9:	66 89 43 04          	mov    %ax,0x4(%ebx)
 8048ccd:	98                   	cwtl   
 8048cce:	66 89 53 06          	mov    %dx,0x6(%ebx)
 8048cd2:	0f bf d2             	movswl %dx,%edx
 8048cd5:	66 89 4b 08          	mov    %cx,0x8(%ebx)
 8048cd9:	0f bf c9             	movswl %cx,%ecx
 8048cdc:	89 4c 24 10          	mov    %ecx,0x10(%esp)
 8048ce0:	89 54 24 0c          	mov    %edx,0xc(%esp)
 8048ce4:	89 44 24 08          	mov    %eax,0x8(%esp)
 8048ce8:	c7 44 24 04 9d 95 04 	movl   $0x804959d,0x4(%esp)
 8048cef:	08 
 8048cf0:	c7 04 24 01 00 00 00 	movl   $0x1,(%esp)
 8048cf7:	e8 40 fd ff ff       	call   8048a3c <__printf_chk@plt>
 8048cfc:	c7 44 24 14 00 00 00 	movl   $0x0,0x14(%esp)
 8048d03:	00 
 8048d04:	8b 43 0c             	mov    0xc(%ebx),%eax
 8048d07:	c7 44 24 0c 01 00 00 	movl   $0x1,0xc(%esp)
 8048d0e:	00 
 8048d0f:	c7 44 24 08 03 00 00 	movl   $0x3,0x8(%esp)
 8048d16:	00 
 8048d17:	89 44 24 10          	mov    %eax,0x10(%esp)
 8048d1b:	0f bf 53 04          	movswl 0x4(%ebx),%edx
 8048d1f:	0f bf 43 06          	movswl 0x6(%ebx),%eax
 8048d23:	0f af c2             	imul   %edx,%eax
 8048d26:	0f bf 53 08          	movswl 0x8(%ebx),%edx
 8048d2a:	c7 04 24 00 00 00 00 	movl   $0x0,(%esp)
 8048d31:	0f af c2             	imul   %edx,%eax
 8048d34:	85 c0                	test   %eax,%eax
 8048d36:	8d 50 07             	lea    0x7(%eax),%edx
 8048d39:	0f 48 c2             	cmovs  %edx,%eax
 8048d3c:	c1 f8 03             	sar    $0x3,%eax
 8048d3f:	89 44 24 04          	mov    %eax,0x4(%esp)
 8048d43:	e8 f4 fb ff ff       	call   804893c <mmap@plt>
 8048d48:	89 03                	mov    %eax,(%ebx)
 8048d4a:	8b 43 0c             	mov    0xc(%ebx),%eax
 8048d4d:	89 45 08             	mov    %eax,0x8(%ebp)
 8048d50:	83 c4 24             	add    $0x24,%esp
 8048d53:	5b                   	pop    %ebx
 8048d54:	5d                   	pop    %ebp
 8048d55:	e9 72 fb ff ff       	jmp    80488cc <close@plt>
 8048d5a:	c7 04 24 76 95 04 08 	movl   $0x8049576,(%esp)
 8048d61:	e8 f6 fc ff ff       	call   8048a5c <perror@plt>
 8048d66:	c7 04 24 ff ff ff ff 	movl   $0xffffffff,(%esp)
 8048d6d:	e8 4a fb ff ff       	call   80488bc <exit@plt>
 8048d72:	8d b4 26 00 00 00 00 	lea    0x0(%esi,%eiz,1),%esi
 8048d79:	8d bc 27 00 00 00 00 	lea    0x0(%edi,%eiz,1),%edi

08048d80 <_ZN12WframebufferD1Ev>:
 8048d80:	55                   	push   %ebp
 8048d81:	89 e5                	mov    %esp,%ebp
 8048d83:	53                   	push   %ebx
 8048d84:	83 ec 14             	sub    $0x14,%esp
 8048d87:	8b 5d 08             	mov    0x8(%ebp),%ebx
 8048d8a:	c7 44 24 04 b4 95 04 	movl   $0x80495b4,0x4(%esp)
 8048d91:	08 
 8048d92:	c7 04 24 01 00 00 00 	movl   $0x1,(%esp)
 8048d99:	e8 9e fc ff ff       	call   8048a3c <__printf_chk@plt>
 8048d9e:	8b 43 0c             	mov    0xc(%ebx),%eax
 8048da1:	89 45 08             	mov    %eax,0x8(%ebp)
 8048da4:	83 c4 14             	add    $0x14,%esp
 8048da7:	5b                   	pop    %ebx
 8048da8:	5d                   	pop    %ebp
 8048da9:	e9 1e fb ff ff       	jmp    80488cc <close@plt>
 8048dae:	90                   	nop
 8048daf:	90                   	nop

08048db0 <_ZN5Wplay10play_colorEv>:
 8048db0:	55                   	push   %ebp
 8048db1:	89 e5                	mov    %esp,%ebp
 8048db3:	57                   	push   %edi
 8048db4:	56                   	push   %esi
 8048db5:	53                   	push   %ebx
 8048db6:	83 ec 18             	sub    $0x18,%esp
 8048db9:	8b 75 08             	mov    0x8(%ebp),%esi
 8048dbc:	8b 56 08             	mov    0x8(%esi),%edx
 8048dbf:	8b 46 0c             	mov    0xc(%esi),%eax
 8048dc2:	0f af c2             	imul   %edx,%eax
 8048dc5:	85 c0                	test   %eax,%eax
 8048dc7:	7e 6b                	jle    8048e34 <_ZN5Wplay10play_colorEv+0x84>
 8048dc9:	8b 46 04             	mov    0x4(%esi),%eax
 8048dcc:	31 ff                	xor    %edi,%edi
 8048dce:	8b 0e                	mov    (%esi),%ecx
 8048dd0:	89 55 dc             	mov    %edx,-0x24(%ebp)
 8048dd3:	89 45 e4             	mov    %eax,-0x1c(%ebp)
 8048dd6:	0f bf 46 10          	movswl 0x10(%esi),%eax
 8048dda:	89 45 e0             	mov    %eax,-0x20(%ebp)
 8048ddd:	8d 76 00             	lea    0x0(%esi),%esi
 8048de0:	0f b6 11             	movzbl (%ecx),%edx
 8048de3:	8d 41 01             	lea    0x1(%ecx),%eax
 8048de6:	89 06                	mov    %eax,(%esi)
 8048de8:	89 55 ec             	mov    %edx,-0x14(%ebp)
 8048deb:	0f b6 41 01          	movzbl 0x1(%ecx),%eax
 8048def:	89 fa                	mov    %edi,%edx
 8048df1:	c1 fa 1f             	sar    $0x1f,%edx
 8048df4:	89 45 f0             	mov    %eax,-0x10(%ebp)
 8048df7:	8d 41 02             	lea    0x2(%ecx),%eax
 8048dfa:	89 06                	mov    %eax,(%esi)
 8048dfc:	89 f8                	mov    %edi,%eax
 8048dfe:	0f b6 59 02          	movzbl 0x2(%ecx),%ebx
 8048e02:	f7 7d dc             	idivl  -0x24(%ebp)
 8048e05:	83 c1 03             	add    $0x3,%ecx
 8048e08:	89 0e                	mov    %ecx,(%esi)
 8048e0a:	83 c7 01             	add    $0x1,%edi
 8048e0d:	c1 65 f0 08          	shll   $0x8,-0x10(%ebp)
 8048e11:	c1 e3 10             	shl    $0x10,%ebx
 8048e14:	0b 5d f0             	or     -0x10(%ebp),%ebx
 8048e17:	0b 5d ec             	or     -0x14(%ebp),%ebx
 8048e1a:	0f af 45 e0          	imul   -0x20(%ebp),%eax
 8048e1e:	01 d0                	add    %edx,%eax
 8048e20:	8b 55 e4             	mov    -0x1c(%ebp),%edx
 8048e23:	89 1c 82             	mov    %ebx,(%edx,%eax,4)
 8048e26:	8b 46 08             	mov    0x8(%esi),%eax
 8048e29:	89 45 dc             	mov    %eax,-0x24(%ebp)
 8048e2c:	0f af 46 0c          	imul   0xc(%esi),%eax
 8048e30:	39 f8                	cmp    %edi,%eax
 8048e32:	7f ac                	jg     8048de0 <_ZN5Wplay10play_colorEv+0x30>
 8048e34:	83 c4 18             	add    $0x18,%esp
 8048e37:	5b                   	pop    %ebx
 8048e38:	5e                   	pop    %esi
 8048e39:	5f                   	pop    %edi
 8048e3a:	5d                   	pop    %ebp
 8048e3b:	c3                   	ret    
 8048e3c:	8d 74 26 00          	lea    0x0(%esi,%eiz,1),%esi

08048e40 <_ZN5Wplay11play_singleEv>:
 8048e40:	55                   	push   %ebp
 8048e41:	89 e5                	mov    %esp,%ebp
 8048e43:	57                   	push   %edi
 8048e44:	56                   	push   %esi
 8048e45:	53                   	push   %ebx
 8048e46:	83 ec 10             	sub    $0x10,%esp
 8048e49:	8b 75 08             	mov    0x8(%ebp),%esi
 8048e4c:	8b 56 08             	mov    0x8(%esi),%edx
 8048e4f:	8b 46 0c             	mov    0xc(%esi),%eax
 8048e52:	0f af c2             	imul   %edx,%eax
 8048e55:	85 c0                	test   %eax,%eax
 8048e57:	7e 49                	jle    8048ea2 <_ZN5Wplay11play_singleEv+0x62>
 8048e59:	8b 46 04             	mov    0x4(%esi),%eax
 8048e5c:	31 ff                	xor    %edi,%edi
 8048e5e:	8b 0e                	mov    (%esi),%ecx
 8048e60:	89 55 e4             	mov    %edx,-0x1c(%ebp)
 8048e63:	89 45 ec             	mov    %eax,-0x14(%ebp)
 8048e66:	0f bf 46 10          	movswl 0x10(%esi),%eax
 8048e6a:	89 45 e8             	mov    %eax,-0x18(%ebp)
 8048e6d:	8d 76 00             	lea    0x0(%esi),%esi
 8048e70:	89 fa                	mov    %edi,%edx
 8048e72:	89 f8                	mov    %edi,%eax
 8048e74:	0f b6 19             	movzbl (%ecx),%ebx
 8048e77:	c1 fa 1f             	sar    $0x1f,%edx
 8048e7a:	83 c1 01             	add    $0x1,%ecx
 8048e7d:	f7 7d e4             	idivl  -0x1c(%ebp)
 8048e80:	83 c7 01             	add    $0x1,%edi
 8048e83:	89 0e                	mov    %ecx,(%esi)
 8048e85:	c1 e3 08             	shl    $0x8,%ebx
 8048e88:	0f af 45 e8          	imul   -0x18(%ebp),%eax
 8048e8c:	01 d0                	add    %edx,%eax
 8048e8e:	8b 55 ec             	mov    -0x14(%ebp),%edx
 8048e91:	89 1c 82             	mov    %ebx,(%edx,%eax,4)
 8048e94:	8b 46 08             	mov    0x8(%esi),%eax
 8048e97:	89 45 e4             	mov    %eax,-0x1c(%ebp)
 8048e9a:	0f af 46 0c          	imul   0xc(%esi),%eax
 8048e9e:	39 f8                	cmp    %edi,%eax
 8048ea0:	7f ce                	jg     8048e70 <_ZN5Wplay11play_singleEv+0x30>
 8048ea2:	83 c4 10             	add    $0x10,%esp
 8048ea5:	5b                   	pop    %ebx
 8048ea6:	5e                   	pop    %esi
 8048ea7:	5f                   	pop    %edi
 8048ea8:	5d                   	pop    %ebp
 8048ea9:	c3                   	ret    
 8048eaa:	8d b6 00 00 00 00    	lea    0x0(%esi),%esi

08048eb0 <_ZN5Wplay9play_fastEv>:
 8048eb0:	55                   	push   %ebp
 8048eb1:	89 e5                	mov    %esp,%ebp
 8048eb3:	57                   	push   %edi
 8048eb4:	56                   	push   %esi
 8048eb5:	53                   	push   %ebx
 8048eb6:	83 ec 0c             	sub    $0xc,%esp
 8048eb9:	8b 7d 08             	mov    0x8(%ebp),%edi
 8048ebc:	0f b7 5f 18          	movzwl 0x18(%edi),%ebx
 8048ec0:	0f bf 47 10          	movswl 0x10(%edi),%eax
 8048ec4:	8b 77 04             	mov    0x4(%edi),%esi
 8048ec7:	8b 17                	mov    (%edi),%edx
 8048ec9:	89 d9                	mov    %ebx,%ecx
 8048ecb:	89 45 f0             	mov    %eax,-0x10(%ebp)
 8048ece:	0f bf c3             	movswl %bx,%eax
 8048ed1:	69 c0 67 66 00 00    	imul   $0x6667,%eax,%eax
 8048ed7:	66 c1 f9 0f          	sar    $0xf,%cx
 8048edb:	89 75 ec             	mov    %esi,-0x14(%ebp)
 8048ede:	8b 75 f0             	mov    -0x10(%ebp),%esi
 8048ee1:	c1 e8 10             	shr    $0x10,%eax
 8048ee4:	66 c1 f8 06          	sar    $0x6,%ax
 8048ee8:	66 29 c8             	sub    %cx,%ax
 8048eeb:	8d 0c 80             	lea    (%eax,%eax,4),%ecx
 8048eee:	98                   	cwtl   
 8048eef:	c1 e1 05             	shl    $0x5,%ecx
 8048ef2:	66 29 cb             	sub    %cx,%bx
 8048ef5:	8d 0c 76             	lea    (%esi,%esi,2),%ecx
 8048ef8:	0f bf db             	movswl %bx,%ebx
 8048efb:	0f af c8             	imul   %eax,%ecx
 8048efe:	31 c0                	xor    %eax,%eax
 8048f00:	8d 0c 99             	lea    (%ecx,%ebx,4),%ecx
 8048f03:	89 4d e8             	mov    %ecx,-0x18(%ebp)
 8048f06:	66 90                	xchg   %ax,%ax
 8048f08:	89 c3                	mov    %eax,%ebx
 8048f0a:	89 c6                	mov    %eax,%esi
 8048f0c:	0f b6 0a             	movzbl (%edx),%ecx
 8048f0f:	c1 fb 02             	sar    $0x2,%ebx
 8048f12:	83 e6 03             	and    $0x3,%esi
 8048f15:	0f af 5d f0          	imul   -0x10(%ebp),%ebx
 8048f19:	83 c0 01             	add    $0x1,%eax
 8048f1c:	03 75 e8             	add    -0x18(%ebp),%esi
 8048f1f:	83 c2 01             	add    $0x1,%edx
 8048f22:	c1 e1 08             	shl    $0x8,%ecx
 8048f25:	83 f8 0c             	cmp    $0xc,%eax
 8048f28:	89 17                	mov    %edx,(%edi)
 8048f2a:	8d 1c 1e             	lea    (%esi,%ebx,1),%ebx
 8048f2d:	8b 75 ec             	mov    -0x14(%ebp),%esi
 8048f30:	89 0c 9e             	mov    %ecx,(%esi,%ebx,4)
 8048f33:	75 d3                	jne    8048f08 <_ZN5Wplay9play_fastEv+0x58>
 8048f35:	83 c4 0c             	add    $0xc,%esp
 8048f38:	5b                   	pop    %ebx
 8048f39:	5e                   	pop    %esi
 8048f3a:	5f                   	pop    %edi
 8048f3b:	5d                   	pop    %ebp
 8048f3c:	c3                   	ret    
 8048f3d:	90                   	nop
 8048f3e:	66 90                	xchg   %ax,%ax

08048f40 <_ZN5Wplay7playpicEv>:
 8048f40:	55                   	push   %ebp
 8048f41:	89 e5                	mov    %esp,%ebp
 8048f43:	83 ec 18             	sub    $0x18,%esp
 8048f46:	8b 55 08             	mov    0x8(%ebp),%edx
 8048f49:	8b 42 14             	mov    0x14(%edx),%eax
 8048f4c:	83 f8 02             	cmp    $0x2,%eax
 8048f4f:	74 3f                	je     8048f90 <_ZN5Wplay7playpicEv+0x50>
 8048f51:	83 f8 03             	cmp    $0x3,%eax
 8048f54:	74 2a                	je     8048f80 <_ZN5Wplay7playpicEv+0x40>
 8048f56:	83 f8 01             	cmp    $0x1,%eax
 8048f59:	74 1d                	je     8048f78 <_ZN5Wplay7playpicEv+0x38>
 8048f5b:	c7 04 24 c4 95 04 08 	movl   $0x80495c4,(%esp)
 8048f62:	e8 f5 fa ff ff       	call   8048a5c <perror@plt>
 8048f67:	c7 04 24 01 00 00 00 	movl   $0x1,(%esp)
 8048f6e:	e8 49 f9 ff ff       	call   80488bc <exit@plt>
 8048f73:	90                   	nop
 8048f74:	8d 74 26 00          	lea    0x0(%esi,%eiz,1),%esi
 8048f78:	c9                   	leave  
 8048f79:	e9 32 fe ff ff       	jmp    8048db0 <_ZN5Wplay10play_colorEv>
 8048f7e:	66 90                	xchg   %ax,%ax
 8048f80:	89 55 08             	mov    %edx,0x8(%ebp)
 8048f83:	c9                   	leave  
 8048f84:	e9 27 ff ff ff       	jmp    8048eb0 <_ZN5Wplay9play_fastEv>
 8048f89:	8d b4 26 00 00 00 00 	lea    0x0(%esi,%eiz,1),%esi
 8048f90:	89 55 08             	mov    %edx,0x8(%ebp)
 8048f93:	c9                   	leave  
 8048f94:	e9 a7 fe ff ff       	jmp    8048e40 <_ZN5Wplay11play_singleEv>
 8048f99:	90                   	nop
 8048f9a:	90                   	nop
 8048f9b:	90                   	nop
 8048f9c:	90                   	nop
 8048f9d:	90                   	nop
 8048f9e:	90                   	nop
 8048f9f:	90                   	nop

08048fa0 <_ZN7WserverC1Ev>:
 8048fa0:	55                   	push   %ebp
 8048fa1:	89 e5                	mov    %esp,%ebp
 8048fa3:	56                   	push   %esi
 8048fa4:	53                   	push   %ebx
 8048fa5:	83 ec 30             	sub    $0x30,%esp
 8048fa8:	8b 75 08             	mov    0x8(%ebp),%esi
 8048fab:	65 a1 14 00 00 00    	mov    %gs:0x14,%eax
 8048fb1:	89 45 f4             	mov    %eax,-0xc(%ebp)
 8048fb4:	31 c0                	xor    %eax,%eax
 8048fb6:	66 c7 46 10 00 00    	movw   $0x0,0x10(%esi)
 8048fbc:	c7 04 24 0f 00 00 00 	movl   $0xf,(%esp)
 8048fc3:	e8 64 fa ff ff       	call   8048a2c <malloc@plt>
 8048fc8:	89 46 1c             	mov    %eax,0x1c(%esi)
 8048fcb:	89 c3                	mov    %eax,%ebx
 8048fcd:	c7 04 24 00 10 0e 00 	movl   $0xe1000,(%esp)
 8048fd4:	e8 53 fa ff ff       	call   8048a2c <malloc@plt>
 8048fd9:	89 46 08             	mov    %eax,0x8(%esi)
 8048fdc:	c7 03 00 00 00 00    	movl   $0x0,(%ebx)
 8048fe2:	c7 43 04 00 00 00 00 	movl   $0x0,0x4(%ebx)
 8048fe9:	c7 43 08 00 00 00 00 	movl   $0x0,0x8(%ebx)
 8048ff0:	66 c7 43 0c 00 00    	movw   $0x0,0xc(%ebx)
 8048ff6:	c6 43 0e 00          	movb   $0x0,0xe(%ebx)
 8048ffa:	c7 44 24 08 00 10 0e 	movl   $0xe1000,0x8(%esp)
 8049001:	00 
 8049002:	c7 44 24 04 00 00 00 	movl   $0x0,0x4(%esp)
 8049009:	00 
 804900a:	89 04 24             	mov    %eax,(%esp)
 804900d:	e8 6a f9 ff ff       	call   804897c <memset@plt>
 8049012:	c7 04 24 dc 95 04 08 	movl   $0x80495dc,(%esp)
 8049019:	e8 fe f9 ff ff       	call   8048a1c <system@plt>
 804901e:	c7 04 24 e5 95 04 08 	movl   $0x80495e5,(%esp)
 8049025:	e8 62 f9 ff ff       	call   804898c <puts@plt>
 804902a:	c7 44 24 08 00 00 00 	movl   $0x0,0x8(%esp)
 8049031:	00 
 8049032:	c7 44 24 04 01 00 00 	movl   $0x1,0x4(%esp)
 8049039:	00 
 804903a:	c7 04 24 02 00 00 00 	movl   $0x2,(%esp)
 8049041:	e8 06 f9 ff ff       	call   804894c <socket@plt>
 8049046:	83 f8 ff             	cmp    $0xffffffff,%eax
 8049049:	89 c3                	mov    %eax,%ebx
 804904b:	0f 84 bd 00 00 00    	je     804910e <_ZN7WserverC1Ev+0x16e>
 8049051:	c7 04 24 06 96 04 08 	movl   $0x8049606,(%esp)
 8049058:	e8 2f f9 ff ff       	call   804898c <puts@plt>
 804905d:	8d 45 e4             	lea    -0x1c(%ebp),%eax
 8049060:	c7 45 e8 00 00 00 00 	movl   $0x0,-0x18(%ebp)
 8049067:	c7 45 ec 00 00 00 00 	movl   $0x0,-0x14(%ebp)
 804906e:	c7 45 f0 00 00 00 00 	movl   $0x0,-0x10(%ebp)
 8049075:	66 c7 45 e4 02 00    	movw   $0x2,-0x1c(%ebp)
 804907b:	66 c7 45 e6 1f 40    	movw   $0x401f,-0x1a(%ebp)
 8049081:	c7 44 24 08 10 00 00 	movl   $0x10,0x8(%esp)
 8049088:	00 
 8049089:	89 44 24 04          	mov    %eax,0x4(%esp)
 804908d:	89 1c 24             	mov    %ebx,(%esp)
 8049090:	e8 77 f9 ff ff       	call   8048a0c <bind@plt>
 8049095:	83 f8 ff             	cmp    $0xffffffff,%eax
 8049098:	0f 84 bd 00 00 00    	je     804915b <_ZN7WserverC1Ev+0x1bb>
 804909e:	c7 04 24 22 96 04 08 	movl   $0x8049622,(%esp)
 80490a5:	e8 e2 f8 ff ff       	call   804898c <puts@plt>
 80490aa:	c7 44 24 04 0a 00 00 	movl   $0xa,0x4(%esp)
 80490b1:	00 
 80490b2:	89 1c 24             	mov    %ebx,(%esp)
 80490b5:	e8 f2 f7 ff ff       	call   80488ac <listen@plt>
 80490ba:	83 f8 ff             	cmp    $0xffffffff,%eax
 80490bd:	0f 84 80 00 00 00    	je     8049143 <_ZN7WserverC1Ev+0x1a3>
 80490c3:	c7 04 24 3e 96 04 08 	movl   $0x804963e,(%esp)
 80490ca:	e8 bd f8 ff ff       	call   804898c <puts@plt>
 80490cf:	c7 44 24 08 00 00 00 	movl   $0x0,0x8(%esp)
 80490d6:	00 
 80490d7:	c7 44 24 04 00 00 00 	movl   $0x0,0x4(%esp)
 80490de:	00 
 80490df:	89 1c 24             	mov    %ebx,(%esp)
 80490e2:	e8 05 f9 ff ff       	call   80489ec <accept@plt>
 80490e7:	83 f8 ff             	cmp    $0xffffffff,%eax
 80490ea:	89 46 14             	mov    %eax,0x14(%esi)
 80490ed:	74 3c                	je     804912b <_ZN7WserverC1Ev+0x18b>
 80490ef:	c7 04 24 5c 96 04 08 	movl   $0x804965c,(%esp)
 80490f6:	e8 91 f8 ff ff       	call   804898c <puts@plt>
 80490fb:	8b 45 f4             	mov    -0xc(%ebp),%eax
 80490fe:	65 33 05 14 00 00 00 	xor    %gs:0x14,%eax
 8049105:	75 1f                	jne    8049126 <_ZN7WserverC1Ev+0x186>
 8049107:	83 c4 30             	add    $0x30,%esp
 804910a:	5b                   	pop    %ebx
 804910b:	5e                   	pop    %esi
 804910c:	5d                   	pop    %ebp
 804910d:	c3                   	ret    
 804910e:	c7 04 24 f7 95 04 08 	movl   $0x80495f7,(%esp)
 8049115:	e8 42 f9 ff ff       	call   8048a5c <perror@plt>
 804911a:	c7 04 24 ff ff ff ff 	movl   $0xffffffff,(%esp)
 8049121:	e8 96 f7 ff ff       	call   80488bc <exit@plt>
 8049126:	e8 e1 f7 ff ff       	call   804890c <__stack_chk_fail@plt>
 804912b:	c7 04 24 4d 96 04 08 	movl   $0x804964d,(%esp)
 8049132:	e8 25 f9 ff ff       	call   8048a5c <perror@plt>
 8049137:	c7 04 24 ff ff ff ff 	movl   $0xffffffff,(%esp)
 804913e:	e8 79 f7 ff ff       	call   80488bc <exit@plt>
 8049143:	c7 04 24 2f 96 04 08 	movl   $0x804962f,(%esp)
 804914a:	e8 0d f9 ff ff       	call   8048a5c <perror@plt>
 804914f:	c7 04 24 ff ff ff ff 	movl   $0xffffffff,(%esp)
 8049156:	e8 61 f7 ff ff       	call   80488bc <exit@plt>
 804915b:	c7 04 24 15 96 04 08 	movl   $0x8049615,(%esp)
 8049162:	e8 f5 f8 ff ff       	call   8048a5c <perror@plt>
 8049167:	c7 04 24 ff ff ff ff 	movl   $0xffffffff,(%esp)
 804916e:	e8 49 f7 ff ff       	call   80488bc <exit@plt>
 8049173:	90                   	nop
 8049174:	8d b6 00 00 00 00    	lea    0x0(%esi),%esi
 804917a:	8d bf 00 00 00 00    	lea    0x0(%edi),%edi

08049180 <_ZN7WserverD1Ev>:
 8049180:	55                   	push   %ebp
 8049181:	89 e5                	mov    %esp,%ebp
 8049183:	53                   	push   %ebx
 8049184:	83 ec 14             	sub    $0x14,%esp
 8049187:	8b 5d 08             	mov    0x8(%ebp),%ebx
 804918a:	8b 43 1c             	mov    0x1c(%ebx),%eax
 804918d:	89 04 24             	mov    %eax,(%esp)
 8049190:	e8 47 f8 ff ff       	call   80489dc <free@plt>
 8049195:	8b 43 08             	mov    0x8(%ebx),%eax
 8049198:	89 04 24             	mov    %eax,(%esp)
 804919b:	e8 3c f8 ff ff       	call   80489dc <free@plt>
 80491a0:	8b 43 18             	mov    0x18(%ebx),%eax
 80491a3:	89 45 08             	mov    %eax,0x8(%ebp)
 80491a6:	83 c4 14             	add    $0x14,%esp
 80491a9:	5b                   	pop    %ebx
 80491aa:	5d                   	pop    %ebp
 80491ab:	e9 1c f7 ff ff       	jmp    80488cc <close@plt>

080491b0 <_ZN7Wserver13recive_picinfEv>:
 80491b0:	55                   	push   %ebp
 80491b1:	89 e5                	mov    %esp,%ebp
 80491b3:	57                   	push   %edi
 80491b4:	56                   	push   %esi
 80491b5:	53                   	push   %ebx
 80491b6:	83 ec 3c             	sub    $0x3c,%esp
 80491b9:	8b 5d 08             	mov    0x8(%ebp),%ebx
 80491bc:	8d 7d d8             	lea    -0x28(%ebp),%edi
 80491bf:	65 a1 14 00 00 00    	mov    %gs:0x14,%eax
 80491c5:	89 45 e4             	mov    %eax,-0x1c(%ebp)
 80491c8:	31 c0                	xor    %eax,%eax
 80491ca:	8d 75 e0             	lea    -0x20(%ebp),%esi
 80491cd:	c7 44 24 0c 00 00 00 	movl   $0x0,0xc(%esp)
 80491d4:	00 
 80491d5:	c7 44 24 08 08 00 00 	movl   $0x8,0x8(%esp)
 80491dc:	00 
 80491dd:	89 7c 24 04          	mov    %edi,0x4(%esp)
 80491e1:	8b 43 14             	mov    0x14(%ebx),%eax
 80491e4:	c7 45 e0 00 00 00 00 	movl   $0x0,-0x20(%ebp)
 80491eb:	c7 45 d8 00 00 00 00 	movl   $0x0,-0x28(%ebp)
 80491f2:	c7 45 dc 00 00 00 00 	movl   $0x0,-0x24(%ebp)
 80491f9:	89 04 24             	mov    %eax,(%esp)
 80491fc:	e8 eb f6 ff ff       	call   80488ec <recv@plt>
 8049201:	c7 44 24 08 08 00 00 	movl   $0x8,0x8(%esp)
 8049208:	00 
 8049209:	89 7c 24 04          	mov    %edi,0x4(%esp)
 804920d:	8b 43 14             	mov    0x14(%ebx),%eax
 8049210:	89 04 24             	mov    %eax,(%esp)
 8049213:	e8 34 f8 ff ff       	call   8048a4c <write@plt>
 8049218:	c7 44 24 08 03 00 00 	movl   $0x3,0x8(%esp)
 804921f:	00 
 8049220:	89 7c 24 04          	mov    %edi,0x4(%esp)
 8049224:	89 34 24             	mov    %esi,(%esp)
 8049227:	e8 b0 f6 ff ff       	call   80488dc <strncpy@plt>
 804922c:	c7 44 24 08 0a 00 00 	movl   $0xa,0x8(%esp)
 8049233:	00 
 8049234:	c7 44 24 04 00 00 00 	movl   $0x0,0x4(%esp)
 804923b:	00 
 804923c:	89 34 24             	mov    %esi,(%esp)
 804923f:	e8 88 f7 ff ff       	call   80489cc <strtol@plt>
 8049244:	89 03                	mov    %eax,(%ebx)
 8049246:	8d 45 db             	lea    -0x25(%ebp),%eax
 8049249:	c7 44 24 08 03 00 00 	movl   $0x3,0x8(%esp)
 8049250:	00 
 8049251:	89 44 24 04          	mov    %eax,0x4(%esp)
 8049255:	89 34 24             	mov    %esi,(%esp)
 8049258:	e8 7f f6 ff ff       	call   80488dc <strncpy@plt>
 804925d:	c7 44 24 08 0a 00 00 	movl   $0xa,0x8(%esp)
 8049264:	00 
 8049265:	c7 44 24 04 00 00 00 	movl   $0x0,0x4(%esp)
 804926c:	00 
 804926d:	89 34 24             	mov    %esi,(%esp)
 8049270:	e8 57 f7 ff ff       	call   80489cc <strtol@plt>
 8049275:	0f be 55 de          	movsbl -0x22(%ebp),%edx
 8049279:	83 ea 30             	sub    $0x30,%edx
 804927c:	89 53 0c             	mov    %edx,0xc(%ebx)
 804927f:	89 43 04             	mov    %eax,0x4(%ebx)
 8049282:	89 54 24 10          	mov    %edx,0x10(%esp)
 8049286:	89 44 24 0c          	mov    %eax,0xc(%esp)
 804928a:	8b 03                	mov    (%ebx),%eax
 804928c:	c7 44 24 04 6b 96 04 	movl   $0x804966b,0x4(%esp)
 8049293:	08 
 8049294:	c7 04 24 01 00 00 00 	movl   $0x1,(%esp)
 804929b:	89 44 24 08          	mov    %eax,0x8(%esp)
 804929f:	e8 98 f7 ff ff       	call   8048a3c <__printf_chk@plt>
 80492a4:	8b 45 e4             	mov    -0x1c(%ebp),%eax
 80492a7:	65 33 05 14 00 00 00 	xor    %gs:0x14,%eax
 80492ae:	75 08                	jne    80492b8 <_ZN7Wserver13recive_picinfEv+0x108>
 80492b0:	83 c4 3c             	add    $0x3c,%esp
 80492b3:	5b                   	pop    %ebx
 80492b4:	5e                   	pop    %esi
 80492b5:	5f                   	pop    %edi
 80492b6:	5d                   	pop    %ebp
 80492b7:	c3                   	ret    
 80492b8:	e8 4f f6 ff ff       	call   804890c <__stack_chk_fail@plt>
 80492bd:	90                   	nop
 80492be:	66 90                	xchg   %ax,%ax

080492c0 <_ZN7Wserver12recive_colorEv>:
 80492c0:	55                   	push   %ebp
 80492c1:	89 e5                	mov    %esp,%ebp
 80492c3:	57                   	push   %edi
 80492c4:	56                   	push   %esi
 80492c5:	53                   	push   %ebx
 80492c6:	83 ec 1c             	sub    $0x1c,%esp
 80492c9:	8b 5d 08             	mov    0x8(%ebp),%ebx
 80492cc:	8b 43 04             	mov    0x4(%ebx),%eax
 80492cf:	0f af 03             	imul   (%ebx),%eax
 80492d2:	8d 04 40             	lea    (%eax,%eax,2),%eax
 80492d5:	3d ff 04 00 00       	cmp    $0x4ff,%eax
 80492da:	7e 68                	jle    8049344 <_ZN7Wserver12recive_colorEv+0x84>
 80492dc:	31 f6                	xor    %esi,%esi
 80492de:	31 ff                	xor    %edi,%edi
 80492e0:	c7 44 24 0c 00 00 00 	movl   $0x0,0xc(%esp)
 80492e7:	00 
 80492e8:	83 c7 01             	add    $0x1,%edi
 80492eb:	c7 44 24 08 00 05 00 	movl   $0x500,0x8(%esp)
 80492f2:	00 
 80492f3:	8b 43 08             	mov    0x8(%ebx),%eax
 80492f6:	01 f0                	add    %esi,%eax
 80492f8:	81 c6 00 05 00 00    	add    $0x500,%esi
 80492fe:	89 44 24 04          	mov    %eax,0x4(%esp)
 8049302:	8b 43 14             	mov    0x14(%ebx),%eax
 8049305:	89 04 24             	mov    %eax,(%esp)
 8049308:	e8 df f5 ff ff       	call   80488ec <recv@plt>
 804930d:	c7 44 24 08 01 00 00 	movl   $0x1,0x8(%esp)
 8049314:	00 
 8049315:	c7 44 24 04 84 96 04 	movl   $0x8049684,0x4(%esp)
 804931c:	08 
 804931d:	8b 43 14             	mov    0x14(%ebx),%eax
 8049320:	89 04 24             	mov    %eax,(%esp)
 8049323:	e8 24 f7 ff ff       	call   8048a4c <write@plt>
 8049328:	8b 03                	mov    (%ebx),%eax
 804932a:	0f af 43 04          	imul   0x4(%ebx),%eax
 804932e:	8d 0c 40             	lea    (%eax,%eax,2),%ecx
 8049331:	b8 67 66 66 66       	mov    $0x66666667,%eax
 8049336:	f7 e9                	imul   %ecx
 8049338:	c1 f9 1f             	sar    $0x1f,%ecx
 804933b:	c1 fa 09             	sar    $0x9,%edx
 804933e:	29 ca                	sub    %ecx,%edx
 8049340:	39 fa                	cmp    %edi,%edx
 8049342:	7f 9c                	jg     80492e0 <_ZN7Wserver12recive_colorEv+0x20>
 8049344:	83 c4 1c             	add    $0x1c,%esp
 8049347:	5b                   	pop    %ebx
 8049348:	5e                   	pop    %esi
 8049349:	5f                   	pop    %edi
 804934a:	5d                   	pop    %ebp
 804934b:	c3                   	ret    
 804934c:	8d 74 26 00          	lea    0x0(%esi,%eiz,1),%esi

08049350 <_ZN7Wserver13recive_singleEv>:
 8049350:	55                   	push   %ebp
 8049351:	89 e5                	mov    %esp,%ebp
 8049353:	57                   	push   %edi
 8049354:	56                   	push   %esi
 8049355:	53                   	push   %ebx
 8049356:	83 ec 1c             	sub    $0x1c,%esp
 8049359:	8b 5d 08             	mov    0x8(%ebp),%ebx
 804935c:	8b 03                	mov    (%ebx),%eax
 804935e:	0f af 43 04          	imul   0x4(%ebx),%eax
 8049362:	3d ff 04 00 00       	cmp    $0x4ff,%eax
 8049367:	7e 68                	jle    80493d1 <_ZN7Wserver13recive_singleEv+0x81>
 8049369:	31 f6                	xor    %esi,%esi
 804936b:	31 ff                	xor    %edi,%edi
 804936d:	8d 76 00             	lea    0x0(%esi),%esi
 8049370:	c7 44 24 0c 00 00 00 	movl   $0x0,0xc(%esp)
 8049377:	00 
 8049378:	83 c7 01             	add    $0x1,%edi
 804937b:	c7 44 24 08 00 05 00 	movl   $0x500,0x8(%esp)
 8049382:	00 
 8049383:	8b 43 08             	mov    0x8(%ebx),%eax
 8049386:	01 f0                	add    %esi,%eax
 8049388:	81 c6 00 05 00 00    	add    $0x500,%esi
 804938e:	89 44 24 04          	mov    %eax,0x4(%esp)
 8049392:	8b 43 14             	mov    0x14(%ebx),%eax
 8049395:	89 04 24             	mov    %eax,(%esp)
 8049398:	e8 4f f5 ff ff       	call   80488ec <recv@plt>
 804939d:	c7 44 24 08 01 00 00 	movl   $0x1,0x8(%esp)
 80493a4:	00 
 80493a5:	c7 44 24 04 84 96 04 	movl   $0x8049684,0x4(%esp)
 80493ac:	08 
 80493ad:	8b 43 14             	mov    0x14(%ebx),%eax
 80493b0:	89 04 24             	mov    %eax,(%esp)
 80493b3:	e8 94 f6 ff ff       	call   8048a4c <write@plt>
 80493b8:	8b 4b 04             	mov    0x4(%ebx),%ecx
 80493bb:	b8 67 66 66 66       	mov    $0x66666667,%eax
 80493c0:	0f af 0b             	imul   (%ebx),%ecx
 80493c3:	f7 e9                	imul   %ecx
 80493c5:	c1 f9 1f             	sar    $0x1f,%ecx
 80493c8:	c1 fa 09             	sar    $0x9,%edx
 80493cb:	29 ca                	sub    %ecx,%edx
 80493cd:	39 fa                	cmp    %edi,%edx
 80493cf:	7f 9f                	jg     8049370 <_ZN7Wserver13recive_singleEv+0x20>
 80493d1:	83 c4 1c             	add    $0x1c,%esp
 80493d4:	5b                   	pop    %ebx
 80493d5:	5e                   	pop    %esi
 80493d6:	5f                   	pop    %edi
 80493d7:	5d                   	pop    %ebp
 80493d8:	c3                   	ret    
 80493d9:	90                   	nop
 80493da:	8d b6 00 00 00 00    	lea    0x0(%esi),%esi

080493e0 <_ZN7Wserver11recive_fastEv>:
 80493e0:	55                   	push   %ebp
 80493e1:	89 e5                	mov    %esp,%ebp
 80493e3:	53                   	push   %ebx
 80493e4:	83 ec 14             	sub    $0x14,%esp
 80493e7:	8b 5d 08             	mov    0x8(%ebp),%ebx
 80493ea:	c7 44 24 0c 00 00 00 	movl   $0x0,0xc(%esp)
 80493f1:	00 
 80493f2:	c7 44 24 08 0e 00 00 	movl   $0xe,0x8(%esp)
 80493f9:	00 
 80493fa:	8b 43 1c             	mov    0x1c(%ebx),%eax
 80493fd:	89 44 24 04          	mov    %eax,0x4(%esp)
 8049401:	8b 43 14             	mov    0x14(%ebx),%eax
 8049404:	89 04 24             	mov    %eax,(%esp)
 8049407:	e8 e0 f4 ff ff       	call   80488ec <recv@plt>
 804940c:	8b 43 1c             	mov    0x1c(%ebx),%eax
 804940f:	83 c0 02             	add    $0x2,%eax
 8049412:	89 44 24 04          	mov    %eax,0x4(%esp)
 8049416:	8b 43 08             	mov    0x8(%ebx),%eax
 8049419:	89 04 24             	mov    %eax,(%esp)
 804941c:	e8 db f5 ff ff       	call   80489fc <strcpy@plt>
 8049421:	8b 53 1c             	mov    0x1c(%ebx),%edx
 8049424:	0f b6 02             	movzbl (%edx),%eax
 8049427:	0f b6 52 01          	movzbl 0x1(%edx),%edx
 804942b:	c1 e0 08             	shl    $0x8,%eax
 804942e:	09 d0                	or     %edx,%eax
 8049430:	66 89 43 10          	mov    %ax,0x10(%ebx)
 8049434:	83 c4 14             	add    $0x14,%esp
 8049437:	5b                   	pop    %ebx
 8049438:	5d                   	pop    %ebp
 8049439:	c3                   	ret    
 804943a:	8d b6 00 00 00 00    	lea    0x0(%esi),%esi

08049440 <_ZN7Wserver6reciveEv>:
 8049440:	55                   	push   %ebp
 8049441:	89 e5                	mov    %esp,%ebp
 8049443:	83 ec 18             	sub    $0x18,%esp
 8049446:	8b 55 08             	mov    0x8(%ebp),%edx
 8049449:	8b 42 0c             	mov    0xc(%edx),%eax
 804944c:	83 f8 02             	cmp    $0x2,%eax
 804944f:	74 3f                	je     8049490 <_ZN7Wserver6reciveEv+0x50>
 8049451:	83 f8 03             	cmp    $0x3,%eax
 8049454:	74 2a                	je     8049480 <_ZN7Wserver6reciveEv+0x40>
 8049456:	83 f8 01             	cmp    $0x1,%eax
 8049459:	74 1d                	je     8049478 <_ZN7Wserver6reciveEv+0x38>
 804945b:	c7 04 24 86 96 04 08 	movl   $0x8049686,(%esp)
 8049462:	e8 f5 f5 ff ff       	call   8048a5c <perror@plt>
 8049467:	c7 04 24 ff ff ff ff 	movl   $0xffffffff,(%esp)
 804946e:	e8 49 f4 ff ff       	call   80488bc <exit@plt>
 8049473:	90                   	nop
 8049474:	8d 74 26 00          	lea    0x0(%esi,%eiz,1),%esi
 8049478:	c9                   	leave  
 8049479:	e9 42 fe ff ff       	jmp    80492c0 <_ZN7Wserver12recive_colorEv>
 804947e:	66 90                	xchg   %ax,%ax
 8049480:	89 55 08             	mov    %edx,0x8(%ebp)
 8049483:	c9                   	leave  
 8049484:	e9 57 ff ff ff       	jmp    80493e0 <_ZN7Wserver11recive_fastEv>
 8049489:	8d b4 26 00 00 00 00 	lea    0x0(%esi,%eiz,1),%esi
 8049490:	89 55 08             	mov    %edx,0x8(%ebp)
 8049493:	c9                   	leave  
 8049494:	e9 b7 fe ff ff       	jmp    8049350 <_ZN7Wserver13recive_singleEv>
 8049499:	90                   	nop
 804949a:	90                   	nop
 804949b:	90                   	nop
 804949c:	90                   	nop
 804949d:	90                   	nop
 804949e:	90                   	nop
 804949f:	90                   	nop

080494a0 <__libc_csu_init>:
 80494a0:	55                   	push   %ebp
 80494a1:	89 e5                	mov    %esp,%ebp
 80494a3:	57                   	push   %edi
 80494a4:	56                   	push   %esi
 80494a5:	53                   	push   %ebx
 80494a6:	e8 5a 00 00 00       	call   8049505 <__i686.get_pc_thunk.bx>
 80494ab:	81 c3 49 1b 00 00    	add    $0x1b49,%ebx
 80494b1:	83 ec 1c             	sub    $0x1c,%esp
 80494b4:	e8 a3 f3 ff ff       	call   804885c <_init>
 80494b9:	8d bb d7 fe ff ff    	lea    -0x129(%ebx),%edi
 80494bf:	8d 83 d7 fe ff ff    	lea    -0x129(%ebx),%eax
 80494c5:	29 c7                	sub    %eax,%edi
 80494c7:	c1 ff 02             	sar    $0x2,%edi
 80494ca:	85 ff                	test   %edi,%edi
 80494cc:	74 24                	je     80494f2 <__libc_csu_init+0x52>
 80494ce:	31 f6                	xor    %esi,%esi
 80494d0:	8b 45 10             	mov    0x10(%ebp),%eax
 80494d3:	89 44 24 08          	mov    %eax,0x8(%esp)
 80494d7:	8b 45 0c             	mov    0xc(%ebp),%eax
 80494da:	89 44 24 04          	mov    %eax,0x4(%esp)
 80494de:	8b 45 08             	mov    0x8(%ebp),%eax
 80494e1:	89 04 24             	mov    %eax,(%esp)
 80494e4:	ff 94 b3 d7 fe ff ff 	call   *-0x129(%ebx,%esi,4)
 80494eb:	83 c6 01             	add    $0x1,%esi
 80494ee:	39 fe                	cmp    %edi,%esi
 80494f0:	72 de                	jb     80494d0 <__libc_csu_init+0x30>
 80494f2:	83 c4 1c             	add    $0x1c,%esp
 80494f5:	5b                   	pop    %ebx
 80494f6:	5e                   	pop    %esi
 80494f7:	5f                   	pop    %edi
 80494f8:	5d                   	pop    %ebp
 80494f9:	c3                   	ret    
 80494fa:	8d b6 00 00 00 00    	lea    0x0(%esi),%esi

08049500 <__libc_csu_fini>:
 8049500:	55                   	push   %ebp
 8049501:	89 e5                	mov    %esp,%ebp
 8049503:	5d                   	pop    %ebp
 8049504:	c3                   	ret    

08049505 <__i686.get_pc_thunk.bx>:
 8049505:	8b 1c 24             	mov    (%esp),%ebx
 8049508:	c3                   	ret    
 8049509:	90                   	nop
 804950a:	90                   	nop
 804950b:	90                   	nop
 804950c:	90                   	nop
 804950d:	90                   	nop
 804950e:	90                   	nop
 804950f:	90                   	nop

08049510 <__do_global_ctors_aux>:
 8049510:	55                   	push   %ebp
 8049511:	89 e5                	mov    %esp,%ebp
 8049513:	53                   	push   %ebx
 8049514:	83 ec 04             	sub    $0x4,%esp
 8049517:	a1 cc ae 04 08       	mov    0x804aecc,%eax
 804951c:	83 f8 ff             	cmp    $0xffffffff,%eax
 804951f:	74 13                	je     8049534 <__do_global_ctors_aux+0x24>
 8049521:	bb cc ae 04 08       	mov    $0x804aecc,%ebx
 8049526:	66 90                	xchg   %ax,%ax
 8049528:	83 eb 04             	sub    $0x4,%ebx
 804952b:	ff d0                	call   *%eax
 804952d:	8b 03                	mov    (%ebx),%eax
 804952f:	83 f8 ff             	cmp    $0xffffffff,%eax
 8049532:	75 f4                	jne    8049528 <__do_global_ctors_aux+0x18>
 8049534:	83 c4 04             	add    $0x4,%esp
 8049537:	5b                   	pop    %ebx
 8049538:	5d                   	pop    %ebp
 8049539:	c3                   	ret    
 804953a:	90                   	nop
 804953b:	90                   	nop

Disassembly of section .fini:

0804953c <_fini>:
 804953c:	55                   	push   %ebp
 804953d:	89 e5                	mov    %esp,%ebp
 804953f:	53                   	push   %ebx
 8049540:	83 ec 04             	sub    $0x4,%esp
 8049543:	e8 00 00 00 00       	call   8049548 <_fini+0xc>
 8049548:	5b                   	pop    %ebx
 8049549:	81 c3 ac 1a 00 00    	add    $0x1aac,%ebx
 804954f:	e8 4c f5 ff ff       	call   8048aa0 <__do_global_dtors_aux>
 8049554:	59                   	pop    %ecx
 8049555:	5b                   	pop    %ebx
 8049556:	c9                   	leave  
 8049557:	c3                   	ret    
